target datalayout = "e-m:e-p270:32:32-p271:32:32-p272:64:64-i64:64-i128:128-f80:128-n8:16:32:64-S128"
target triple = "x86_64-pc-linux-gnu"

%struct._php_ps_globals = type { ptr, ptr, ptr, ptr, ptr, i64, ptr, ptr, ptr, i8, i8, ptr, ptr, ptr, i32, ptr, i32, i32, %struct._php_random_status_state_pcgoneseq128xslrr64, %struct._php_random_algo_with_state, i64, i64, i64, i64, %struct.anon, ptr, i8, i8, i8, i8, i8, i8, i8, i8, ptr, %struct._zval_struct, i64, i64, ptr, ptr, ptr, i64, double, i8, i8, i8, i8, i8, i8, ptr }
%struct._php_random_status_state_pcgoneseq128xslrr64 = type { i128 }
%struct._php_random_algo_with_state = type { ptr, ptr }
%struct.anon = type { %struct._zval_struct, %struct._zval_struct, %struct._zval_struct, %struct._zval_struct, %struct._zval_struct, %struct._zval_struct, %struct._zval_struct, %struct._zval_struct, %struct._zval_struct }
%struct._zval_struct = type { %union._zend_value, %union.anon, %union.anon.3 }
%union._zend_value = type { i64 }
%union.anon = type { i32 }
%union.anon.3 = type { i32 }
%struct._php_random_algo = type { i64, ptr, ptr, ptr, ptr }

@php_random_algo_pcgoneseq128xslrr64 = external constant %struct._php_random_algo, align 8

; Function Attrs: nounwind uwtable
define internal { i64, i64 } @php_random_uint128_constant(i64 noundef %0, i64 noundef %1) #0 {
  %3 = alloca i128, align 16
  %4 = alloca i64, align 8
  %5 = alloca i64, align 8
  %6 = alloca i128, align 16
  store i64 %0, ptr %4, align 8
  store i64 %1, ptr %5, align 8
  %7 = load i64, ptr %4, align 8
  %8 = zext i64 %7 to i128
  %9 = shl i128 %8, 64
  %10 = load i64, ptr %5, align 8
  %11 = zext i64 %10 to i128
  %12 = add i128 %9, %11
  store i128 %12, ptr %6, align 16
  %13 = load i128, ptr %6, align 16
  store i128 %13, ptr %3, align 16
  %14 = load { i64, i64 }, ptr %3, align 16
  ret { i64, i64 } %14
}

; Function Attrs: nounwind uwtable
define internal i32 @php_random_bytes_silent(ptr noundef %0, i64 noundef %1) #0 {
  %3 = alloca ptr, align 8
  %4 = alloca i64, align 8
  store ptr %0, ptr %3, align 8
  store i64 %1, ptr %4, align 8
  %5 = load ptr, ptr %3, align 8
  %6 = load i64, ptr %4, align 8
  %7 = call i32 @php_random_bytes(ptr noundef %5, i64 noundef %6, i1 noundef zeroext false)
  ret i32 %7
}

; Function Attrs: nounwind uwtable
define internal void @zm_globals_ctor_ps(ptr noundef %0) #0 {
  %2 = alloca ptr, align 8
  %3 = alloca %struct._php_random_algo_with_state, align 8
  %4 = alloca i128, align 16
  %5 = alloca i128, align 16
  %6 = alloca i128, align 16
  store ptr %0, ptr %2, align 8
  %7 = load ptr, ptr %2, align 8
  %8 = getelementptr inbounds %struct._php_ps_globals, ptr %7, i32 0, i32 0
  store ptr null, ptr %8, align 16
  %9 = load ptr, ptr %2, align 8
  %10 = getelementptr inbounds %struct._php_ps_globals, ptr %9, i32 0, i32 1
  store ptr null, ptr %10, align 8
  %11 = load ptr, ptr %2, align 8
  %12 = getelementptr inbounds %struct._php_ps_globals, ptr %11, i32 0, i32 2
  store ptr null, ptr %12, align 16
  %13 = load ptr, ptr %2, align 8
  %14 = getelementptr inbounds %struct._php_ps_globals, ptr %13, i32 0, i32 11
  store ptr null, ptr %14, align 16
  %15 = load ptr, ptr %2, align 8
  %16 = getelementptr inbounds %struct._php_ps_globals, ptr %15, i32 0, i32 34
  store ptr null, ptr %16, align 16
  %17 = load ptr, ptr %2, align 8
  %18 = getelementptr inbounds %struct._php_ps_globals, ptr %17, i32 0, i32 13
  store ptr null, ptr %18, align 16
  %19 = load ptr, ptr %2, align 8
  %20 = getelementptr inbounds %struct._php_ps_globals, ptr %19, i32 0, i32 14
  store i32 1, ptr %20, align 8
  %21 = load ptr, ptr %2, align 8
  %22 = getelementptr inbounds %struct._php_ps_globals, ptr %21, i32 0, i32 12
  store ptr null, ptr %22, align 8
  %23 = load ptr, ptr %2, align 8
  %24 = getelementptr inbounds %struct._php_ps_globals, ptr %23, i32 0, i32 26
  store i8 0, ptr %24, align 8
  %25 = load ptr, ptr %2, align 8
  %26 = getelementptr inbounds %struct._php_ps_globals, ptr %25, i32 0, i32 25
  store ptr null, ptr %26, align 16
  %27 = load ptr, ptr %2, align 8
  %28 = getelementptr inbounds %struct._php_ps_globals, ptr %27, i32 0, i32 27
  store i8 0, ptr %28, align 1
  %29 = load ptr, ptr %2, align 8
  %30 = getelementptr inbounds %struct._php_ps_globals, ptr %29, i32 0, i32 49
  store ptr null, ptr %30, align 8
  %31 = load ptr, ptr %2, align 8
  %32 = getelementptr inbounds %struct._php_ps_globals, ptr %31, i32 0, i32 48
  store i8 0, ptr %32, align 1
  %33 = load ptr, ptr %2, align 8
  %34 = getelementptr inbounds %struct._php_ps_globals, ptr %33, i32 0, i32 15
  store ptr null, ptr %34, align 16
  %35 = load ptr, ptr %2, align 8
  %36 = getelementptr inbounds %struct._php_ps_globals, ptr %35, i32 0, i32 16
  store i32 0, ptr %36, align 8
  br label %37

37:                                               ; preds = %1
  %38 = load ptr, ptr %2, align 8
  %39 = getelementptr inbounds %struct._php_ps_globals, ptr %38, i32 0, i32 24
  %40 = getelementptr inbounds %struct.anon, ptr %39, i32 0, i32 0
  %41 = getelementptr inbounds %struct._zval_struct, ptr %40, i32 0, i32 1
  store i32 0, ptr %41, align 8
  br label %42

42:                                               ; preds = %37
  br label %43

43:                                               ; preds = %42
  %44 = load ptr, ptr %2, align 8
  %45 = getelementptr inbounds %struct._php_ps_globals, ptr %44, i32 0, i32 24
  %46 = getelementptr inbounds %struct.anon, ptr %45, i32 0, i32 1
  %47 = getelementptr inbounds %struct._zval_struct, ptr %46, i32 0, i32 1
  store i32 0, ptr %47, align 8
  br label %48

48:                                               ; preds = %43
  br label %49

49:                                               ; preds = %48
  %50 = load ptr, ptr %2, align 8
  %51 = getelementptr inbounds %struct._php_ps_globals, ptr %50, i32 0, i32 24
  %52 = getelementptr inbounds %struct.anon, ptr %51, i32 0, i32 2
  %53 = getelementptr inbounds %struct._zval_struct, ptr %52, i32 0, i32 1
  store i32 0, ptr %53, align 8
  br label %54

54:                                               ; preds = %49
  br label %55

55:                                               ; preds = %54
  %56 = load ptr, ptr %2, align 8
  %57 = getelementptr inbounds %struct._php_ps_globals, ptr %56, i32 0, i32 24
  %58 = getelementptr inbounds %struct.anon, ptr %57, i32 0, i32 3
  %59 = getelementptr inbounds %struct._zval_struct, ptr %58, i32 0, i32 1
  store i32 0, ptr %59, align 8
  br label %60

60:                                               ; preds = %55
  br label %61

61:                                               ; preds = %60
  %62 = load ptr, ptr %2, align 8
  %63 = getelementptr inbounds %struct._php_ps_globals, ptr %62, i32 0, i32 24
  %64 = getelementptr inbounds %struct.anon, ptr %63, i32 0, i32 4
  %65 = getelementptr inbounds %struct._zval_struct, ptr %64, i32 0, i32 1
  store i32 0, ptr %65, align 8
  br label %66

66:                                               ; preds = %61
  br label %67

67:                                               ; preds = %66
  %68 = load ptr, ptr %2, align 8
  %69 = getelementptr inbounds %struct._php_ps_globals, ptr %68, i32 0, i32 24
  %70 = getelementptr inbounds %struct.anon, ptr %69, i32 0, i32 5
  %71 = getelementptr inbounds %struct._zval_struct, ptr %70, i32 0, i32 1
  store i32 0, ptr %71, align 8
  br label %72

72:                                               ; preds = %67
  br label %73

73:                                               ; preds = %72
  %74 = load ptr, ptr %2, align 8
  %75 = getelementptr inbounds %struct._php_ps_globals, ptr %74, i32 0, i32 24
  %76 = getelementptr inbounds %struct.anon, ptr %75, i32 0, i32 6
  %77 = getelementptr inbounds %struct._zval_struct, ptr %76, i32 0, i32 1
  store i32 0, ptr %77, align 8
  br label %78

78:                                               ; preds = %73
  br label %79

79:                                               ; preds = %78
  %80 = load ptr, ptr %2, align 8
  %81 = getelementptr inbounds %struct._php_ps_globals, ptr %80, i32 0, i32 24
  %82 = getelementptr inbounds %struct.anon, ptr %81, i32 0, i32 7
  %83 = getelementptr inbounds %struct._zval_struct, ptr %82, i32 0, i32 1
  store i32 0, ptr %83, align 8
  br label %84

84:                                               ; preds = %79
  br label %85

85:                                               ; preds = %84
  %86 = load ptr, ptr %2, align 8
  %87 = getelementptr inbounds %struct._php_ps_globals, ptr %86, i32 0, i32 24
  %88 = getelementptr inbounds %struct.anon, ptr %87, i32 0, i32 8
  %89 = getelementptr inbounds %struct._zval_struct, ptr %88, i32 0, i32 1
  store i32 0, ptr %89, align 8
  br label %90

90:                                               ; preds = %85
  br label %91

91:                                               ; preds = %90
  %92 = load ptr, ptr %2, align 8
  %93 = getelementptr inbounds %struct._php_ps_globals, ptr %92, i32 0, i32 35
  %94 = getelementptr inbounds %struct._zval_struct, ptr %93, i32 0, i32 1
  store i32 0, ptr %94, align 8
  br label %95

95:                                               ; preds = %91
  %96 = load ptr, ptr %2, align 8
  %97 = getelementptr inbounds %struct._php_ps_globals, ptr %96, i32 0, i32 19
  %98 = getelementptr inbounds %struct._php_random_algo_with_state, ptr %3, i32 0, i32 0
  store ptr @php_random_algo_pcgoneseq128xslrr64, ptr %98, align 8
  %99 = getelementptr inbounds %struct._php_random_algo_with_state, ptr %3, i32 0, i32 1
  %100 = load ptr, ptr %2, align 8
  %101 = getelementptr inbounds %struct._php_ps_globals, ptr %100, i32 0, i32 18
  store ptr %101, ptr %99, align 8
  call void @llvm.memcpy.p0.p0.i64(ptr align 16 %97, ptr align 8 %3, i64 16, i1 false)
  %102 = call i32 @php_random_bytes_silent(ptr noundef %4, i64 noundef 16)
  %103 = icmp eq i32 %102, -1
  br i1 %103, label %104, label %127

104:                                              ; preds = %95
  %105 = call i64 @time(ptr noundef null) #14
  %106 = call i32 @getpid() #14
  %107 = sext i32 %106 to i64
  %108 = mul i64 %105, %107
  %109 = call double @php_combined_lcg()
  %110 = fmul double 1.000000e+06, %109
  %111 = fptosi double %110 to i64
  %112 = xor i64 %108, %111
  %113 = call i64 @time(ptr noundef null) #14
  %114 = call i32 @getpid() #14
  %115 = sext i32 %114 to i64
  %116 = mul i64 %113, %115
  %117 = call double @php_combined_lcg()
  %118 = fmul double 1.000000e+06, %117
  %119 = fptosi double %118 to i64
  %120 = xor i64 %116, %119
  %121 = call { i64, i64 } @php_random_uint128_constant(i64 noundef %112, i64 noundef %120)
  %122 = getelementptr inbounds { i64, i64 }, ptr %5, i32 0, i32 0
  %123 = extractvalue { i64, i64 } %121, 0
  store i64 %123, ptr %122, align 16
  %124 = getelementptr inbounds { i64, i64 }, ptr %5, i32 0, i32 1
  %125 = extractvalue { i64, i64 } %121, 1
  store i64 %125, ptr %124, align 8
  %126 = load i128, ptr %5, align 16
  store i128 %126, ptr %4, align 16
  br label %127

127:                                              ; preds = %104, %95
  %128 = load ptr, ptr %2, align 8
  %129 = getelementptr inbounds %struct._php_ps_globals, ptr %128, i32 0, i32 19
  %130 = getelementptr inbounds %struct._php_random_algo_with_state, ptr %129, i32 0, i32 1
  %131 = load ptr, ptr %130, align 8
  %132 = load i128, ptr %4, align 16
  store i128 %132, ptr %6, align 16
  %133 = getelementptr inbounds { i64, i64 }, ptr %6, i32 0, i32 0
  %134 = load i64, ptr %133, align 16
  %135 = getelementptr inbounds { i64, i64 }, ptr %6, i32 0, i32 1
  %136 = load i64, ptr %135, align 8
  call void @php_random_pcgoneseq128xslrr64_seed128(ptr noundef %131, i64 noundef %134, i64 noundef %136)
  ret void
}