; Function Attrs: nounwind uwtable
define internal void @zm_globals_ctor_ps(ptr noundef %0) #0 {
  %2 = alloca i128, align 16
  %3 = getelementptr inbounds i8, ptr %0, i64 80
  store ptr null, ptr %3, align 16
  %4 = getelementptr inbounds i8, ptr %0, i64 352
  store ptr null, ptr %4, align 16
  %5 = getelementptr inbounds i8, ptr %0, i64 96
  store ptr null, ptr %5, align 16
  %6 = getelementptr inbounds i8, ptr %0, i64 104
  tail call void @llvm.memset.p0.i64(ptr noundef nonnull align 16 dereferenceable(24) %0, i8 0, i64 24, i1 false)
  store i32 1, ptr %6, align 8
  %7 = getelementptr inbounds i8, ptr %0, i64 88
  store ptr null, ptr %7, align 8
  %8 = getelementptr inbounds i8, ptr %0, i64 344
  store i8 0, ptr %8, align 8
  %9 = getelementptr inbounds i8, ptr %0, i64 336
  store ptr null, ptr %9, align 16
  %10 = getelementptr inbounds i8, ptr %0, i64 345
  store i8 0, ptr %10, align 1
  %11 = getelementptr inbounds i8, ptr %0, i64 440
  store ptr null, ptr %11, align 8
  %12 = getelementptr inbounds i8, ptr %0, i64 437
  store i8 0, ptr %12, align 1
  %13 = getelementptr inbounds i8, ptr %0, i64 112
  store ptr null, ptr %13, align 16
  %14 = getelementptr inbounds i8, ptr %0, i64 120
  store i32 0, ptr %14, align 8
  %15 = getelementptr inbounds i8, ptr %0, i64 200
  store i32 0, ptr %15, align 8
  %16 = getelementptr inbounds i8, ptr %0, i64 216
  store i32 0, ptr %16, align 8
  %17 = getelementptr inbounds i8, ptr %0, i64 232
  store i32 0, ptr %17, align 8
  %18 = getelementptr inbounds i8, ptr %0, i64 248
  store i32 0, ptr %18, align 8
  %19 = getelementptr inbounds i8, ptr %0, i64 264
  store i32 0, ptr %19, align 8
  %20 = getelementptr inbounds i8, ptr %0, i64 280
  store i32 0, ptr %20, align 8
  %21 = getelementptr inbounds i8, ptr %0, i64 296
  store i32 0, ptr %21, align 8
  %22 = getelementptr inbounds i8, ptr %0, i64 312
  store i32 0, ptr %22, align 8
  %23 = getelementptr inbounds i8, ptr %0, i64 328
  store i32 0, ptr %23, align 8
  %24 = getelementptr inbounds i8, ptr %0, i64 368
  store i32 0, ptr %24, align 8
  %25 = getelementptr inbounds i8, ptr %0, i64 144
  %26 = getelementptr inbounds i8, ptr %0, i64 128
  store ptr @php_random_algo_pcgoneseq128xslrr64, ptr %25, align 16
  %.sroa.24.0..sroa_idx = getelementptr inbounds i8, ptr %0, i64 152
  store ptr %26, ptr %.sroa.24.0..sroa_idx, align 8
  %27 = call i32 @php_random_bytes(ptr noundef nonnull %2, i64 noundef 16, i1 noundef zeroext false) #23
  %28 = icmp eq i32 %27, -1
  br i1 %28, label %29, label %._crit_edge

._crit_edge:                                      ; preds = %1
  %.pre = load i128, ptr %2, align 16
  %extract.t = trunc i128 %.pre to i64
  %extract = lshr i128 %.pre, 64
  %extract.t33 = trunc i128 %extract to i64
  br label %46

29:                                               ; preds = %1
  %30 = call i64 @time(ptr noundef null) #23
  %31 = call i32 @getpid() #23
  %32 = sext i32 %31 to i64
  %33 = mul i64 %30, %32
  %34 = call double @php_combined_lcg() #23
  %35 = fmul double %34, 1.000000e+06
  %36 = fptosi double %35 to i64
  %37 = xor i64 %33, %36
  %38 = call i64 @time(ptr noundef null) #23
  %39 = call i32 @getpid() #23
  %40 = sext i32 %39 to i64
  %41 = mul i64 %38, %40
  %42 = call double @php_combined_lcg() #23
  %43 = fmul double %42, 1.000000e+06
  %44 = fptosi double %43 to i64
  %45 = xor i64 %41, %44
  %.sroa.22.0.insert.ext = zext i64 %37 to i128
  %.sroa.22.0.insert.shift = shl nuw i128 %.sroa.22.0.insert.ext, 64
  %.sroa.01.0.insert.ext = zext i64 %45 to i128
  %.sroa.01.0.insert.insert = or disjoint i128 %.sroa.22.0.insert.shift, %.sroa.01.0.insert.ext
  store i128 %.sroa.01.0.insert.insert, ptr %2, align 16
  br label %46

46:                                               ; preds = %._crit_edge, %29
  %.off0 = phi i64 [ %extract.t, %._crit_edge ], [ %45, %29 ]
  %.off64 = phi i64 [ %extract.t33, %._crit_edge ], [ %37, %29 ]
  %47 = load ptr, ptr %.sroa.24.0..sroa_idx, align 8
  call void @php_random_pcgoneseq128xslrr64_seed128(ptr noundef %47, i64 noundef %.off0, i64 noundef %.off64) #23
  ret void
}